; Function Attrs: nounwind uwtable
define ptr @l_Lean_Server_ServerTask_get___rarg(ptr noundef %0) #0 {
  %2 = tail call ptr @lean_task_get(ptr noundef %0) #4
  %3 = ptrtoint ptr %2 to i64
  %4 = and i64 %3, 1
  %.not.i = icmp eq i64 %4, 0
  br i1 %.not.i, label %5, label %lean_inc.exit.i

5:                                                ; preds = %1
  %.val.i.i = load i32, ptr %2, align 4, !tbaa !4
  %6 = icmp sgt i32 %.val.i.i, 0
  br i1 %6, label %7, label %9, !prof !13

7:                                                ; preds = %5
  %8 = add nuw i32 %.val.i.i, 1
  store i32 %8, ptr %2, align 4, !tbaa !4
  br label %lean_inc.exit.i

9:                                                ; preds = %5
  %.not.i4.i = icmp eq i32 %.val.i.i, 0
  br i1 %.not.i4.i, label %lean_inc.exit.i, label %10

10:                                               ; preds = %9
  tail call void @lean_inc_ref_cold(ptr noundef nonnull %2) #4
  br label %lean_inc.exit.i

lean_inc.exit.i:                                  ; preds = %10, %9, %7, %1
  %11 = ptrtoint ptr %0 to i64
  %12 = and i64 %11, 1
  %.not5.i = icmp eq i64 %12, 0
  br i1 %.not5.i, label %13, label %lean_task_get_own.exit

13:                                               ; preds = %lean_inc.exit.i
  %14 = load i32, ptr %0, align 4, !tbaa !4
  %15 = icmp sgt i32 %14, 1
  br i1 %15, label %16, label %18, !prof !13

16:                                               ; preds = %13
  %17 = add nsw i32 %14, -1
  store i32 %17, ptr %0, align 4, !tbaa !4
  br label %lean_task_get_own.exit

18:                                               ; preds = %13
  %.not.i.i = icmp eq i32 %14, 0
  br i1 %.not.i.i, label %lean_task_get_own.exit, label %19

19:                                               ; preds = %18
  tail call void @lean_dec_ref_cold(ptr noundef nonnull %0) #4
  br label %lean_task_get_own.exit

lean_task_get_own.exit:                           ; preds = %lean_inc.exit.i, %16, %18, %19
  ret ptr %2
}